; ModuleID = 'source-C-CXX/48/1406.cpp'
source_filename = "source-C-CXX/48/1406.cpp"
target datalayout = "e-m:e-p270:32:32-p271:32:32-p272:64:64-i64:64-f80:128-n8:16:32:64-S128"
target triple = "x86_64-pc-linux-gnu"

%"class.std::ios_base::Init" = type { i8 }
%"class.std::basic_istream" = type { i32 (...)**, i64, %"class.std::basic_ios" }
%"class.std::basic_ios" = type { %"class.std::ios_base", %"class.std::basic_ostream"*, i8, i8, %"class.std::basic_streambuf"*, %"class.std::ctype"*, %"class.std::num_put"*, %"class.std::num_get"* }
%"class.std::ios_base" = type { i32 (...)**, i64, i64, i32, i32, i32, %"struct.std::ios_base::_Callback_list"*, %"struct.std::ios_base::_Words", [8 x %"struct.std::ios_base::_Words"], i32, %"struct.std::ios_base::_Words"*, %"class.std::locale" }
%"struct.std::ios_base::_Callback_list" = type { %"struct.std::ios_base::_Callback_list"*, void (i32, %"class.std::ios_base"*, i32)*, i32, i32 }
%"struct.std::ios_base::_Words" = type { i8*, i64 }
%"class.std::locale" = type { %"class.std::locale::_Impl"* }
%"class.std::locale::_Impl" = type { i32, %"class.std::locale::facet"**, i64, %"class.std::locale::facet"**, i8** }
%"class.std::locale::facet" = type <{ i32 (...)**, i32, [4 x i8] }>
%"class.std::basic_ostream" = type { i32 (...)**, %"class.std::basic_ios" }
%"class.std::basic_streambuf" = type { i32 (...)**, i8*, i8*, i8*, i8*, i8*, i8*, %"class.std::locale" }
%"class.std::ctype" = type <{ %"class.std::locale::facet.base", [4 x i8], %struct.__locale_struct*, i8, [7 x i8], i32*, i32*, i16*, i8, [256 x i8], [256 x i8], i8, [6 x i8] }>
%"class.std::locale::facet.base" = type <{ i32 (...)**, i32 }>
%struct.__locale_struct = type { [13 x %struct.__locale_data*], i16*, i32*, i32*, [13 x i8*] }
%struct.__locale_data = type opaque
%"class.std::num_put" = type { %"class.std::locale::facet.base", [4 x i8] }
%"class.std::num_get" = type { %"class.std::locale::facet.base", [4 x i8] }

@_ZStL8__ioinit = internal global %"class.std::ios_base::Init" zeroinitializer, align 1
@__dso_handle = external hidden global i8
@a = dso_local global [600 x i8] zeroinitializer, align 16
@b = dso_local local_unnamed_addr global [100 x i8] zeroinitializer, align 16
@b1 = dso_local local_unnamed_addr global [100 x i8] zeroinitializer, align 16
@p = dso_local local_unnamed_addr global i8* null, align 8
@_ZSt3cin = external global %"class.std::basic_istream", align 8
@_ZSt4cout = external global %"class.std::basic_ostream", align 8
@llvm.global_ctors = appending global [1 x { i32, void ()*, i8* }] [{ i32, void ()*, i8* } { i32 65535, void ()* @_GLOBAL__sub_I_1406.cpp, i8* null }]

declare void @_ZNSt8ios_base4InitC1Ev(%"class.std::ios_base::Init"* nonnull align 1 dereferenceable(1)) unnamed_addr #0

; Function Attrs: nounwind
declare void @_ZNSt8ios_base4InitD1Ev(%"class.std::ios_base::Init"* nonnull align 1 dereferenceable(1)) unnamed_addr #1

; Function Attrs: nofree nounwind
declare i32 @__cxa_atexit(void (i8*)*, i8*, i8*) local_unnamed_addr #2

; Function Attrs: mustprogress norecurse sspstrong uwtable
define dso_local i32 @main() local_unnamed_addr #3 {
  %1 = alloca i8, align 1
  tail call void @_ZSt17__istream_extractRSiPcl(%"class.std::basic_istream"* nonnull align 8 dereferenceable(16) @_ZSt3cin, i8* nonnull getelementptr inbounds ([600 x i8], [600 x i8]* @a, i64 0, i64 0), i64 600)
  %2 = call i64 @strlen(i8* noundef nonnull dereferenceable(1) getelementptr inbounds ([600 x i8], [600 x i8]* @a, i64 0, i64 0)) #8
  %3 = icmp ugt i64 %2, 1
  br i1 %3, label %4, label %14

4:                                                ; preds = %0, %18
  %5 = phi i64 [ %19, %18 ], [ 1, %0 ]
  %6 = phi i64 [ %22, %18 ], [ 2, %0 ]
  %7 = trunc i64 %5 to i32
  %8 = lshr i32 %7, 1
  %9 = add nuw nsw i32 %8, 1
  %10 = call i64 @strlen(i8* noundef nonnull dereferenceable(1) getelementptr inbounds ([600 x i8], [600 x i8]* @a, i64 0, i64 0)) #8
  %11 = icmp eq i64 %10, %5
  br i1 %11, label %18, label %12

12:                                               ; preds = %4
  %13 = zext i32 %9 to i64
  br label %15

14:                                               ; preds = %18, %0
  ret i32 0

15:                                               ; preds = %12, %75
  %16 = phi i64 [ 0, %12 ], [ %76, %75 ]
  %17 = add nuw nsw i64 %16, %5
  br label %23

18:                                               ; preds = %75, %4
  %19 = add nuw i64 %5, 1
  %20 = call i64 @strlen(i8* noundef nonnull dereferenceable(1) getelementptr inbounds ([600 x i8], [600 x i8]* @a, i64 0, i64 0)) #8
  %21 = icmp ugt i64 %20, %19
  %22 = add nuw i64 %6, 1
  br i1 %21, label %4, label %14, !llvm.loop !5

23:                                               ; preds = %15, %32
  %24 = phi i64 [ 0, %15 ], [ %33, %32 ]
  %25 = add nuw nsw i64 %24, %16
  %26 = getelementptr inbounds [600 x i8], [600 x i8]* @a, i64 0, i64 %25
  %27 = load i8, i8* %26, align 1, !tbaa !7
  %28 = sub nsw i64 %17, %24
  %29 = getelementptr inbounds [600 x i8], [600 x i8]* @a, i64 0, i64 %28
  %30 = load i8, i8* %29, align 1, !tbaa !7
  %31 = icmp eq i8 %27, %30
  br i1 %31, label %32, label %35

32:                                               ; preds = %23
  %33 = add nuw nsw i64 %24, 1
  %34 = icmp eq i64 %33, %13
  br i1 %34, label %38, label %23, !llvm.loop !10

35:                                               ; preds = %23
  %36 = trunc i64 %24 to i32
  %37 = icmp eq i32 %9, %36
  br i1 %37, label %38, label %75

38:                                               ; preds = %32, %35
  br label %67

39:                                               ; preds = %67
  %40 = load i8*, i8** bitcast (%"class.std::basic_ostream"* @_ZSt4cout to i8**), align 8, !tbaa !11
  %41 = getelementptr i8, i8* %40, i64 -24
  %42 = bitcast i8* %41 to i64*
  %43 = load i64, i64* %42, align 8
  %44 = add nsw i64 %43, 240
  %45 = getelementptr inbounds i8, i8* bitcast (%"class.std::basic_ostream"* @_ZSt4cout to i8*), i64 %44
  %46 = bitcast i8* %45 to %"class.std::ctype"**
  %47 = load %"class.std::ctype"*, %"class.std::ctype"** %46, align 8, !tbaa !13
  %48 = icmp eq %"class.std::ctype"* %47, null
  br i1 %48, label %49, label %50

49:                                               ; preds = %39
  call void @_ZSt16__throw_bad_castv() #9
  unreachable

50:                                               ; preds = %39
  %51 = getelementptr inbounds %"class.std::ctype", %"class.std::ctype"* %47, i64 0, i32 8
  %52 = load i8, i8* %51, align 8, !tbaa !17
  %53 = icmp eq i8 %52, 0
  br i1 %53, label %57, label %54

54:                                               ; preds = %50
  %55 = getelementptr inbounds %"class.std::ctype", %"class.std::ctype"* %47, i64 0, i32 9, i64 10
  %56 = load i8, i8* %55, align 1, !tbaa !7
  br label %63

57:                                               ; preds = %50
  call void @_ZNKSt5ctypeIcE13_M_widen_initEv(%"class.std::ctype"* nonnull align 8 dereferenceable(570) %47)
  %58 = bitcast %"class.std::ctype"* %47 to i8 (%"class.std::ctype"*, i8)***
  %59 = load i8 (%"class.std::ctype"*, i8)**, i8 (%"class.std::ctype"*, i8)*** %58, align 8, !tbaa !11
  %60 = getelementptr inbounds i8 (%"class.std::ctype"*, i8)*, i8 (%"class.std::ctype"*, i8)** %59, i64 6
  %61 = load i8 (%"class.std::ctype"*, i8)*, i8 (%"class.std::ctype"*, i8)** %60, align 8
  %62 = call signext i8 %61(%"class.std::ctype"* nonnull align 8 dereferenceable(570) %47, i8 signext 10)
  br label %63

63:                                               ; preds = %54, %57
  %64 = phi i8 [ %56, %54 ], [ %62, %57 ]
  %65 = call nonnull align 8 dereferenceable(8) %"class.std::basic_ostream"* @_ZNSo3putEc(%"class.std::basic_ostream"* nonnull align 8 dereferenceable(8) @_ZSt4cout, i8 signext %64)
  %66 = call nonnull align 8 dereferenceable(8) %"class.std::basic_ostream"* @_ZNSo5flushEv(%"class.std::basic_ostream"* nonnull align 8 dereferenceable(8) %65)
  br label %75

67:                                               ; preds = %38, %67
  %68 = phi i64 [ %73, %67 ], [ 0, %38 ]
  %69 = add nuw nsw i64 %68, %16
  %70 = getelementptr inbounds [600 x i8], [600 x i8]* @a, i64 0, i64 %69
  %71 = load i8, i8* %70, align 1, !tbaa !7
  call void @llvm.lifetime.start.p0i8(i64 1, i8* nonnull %1)
  store i8 %71, i8* %1, align 1, !tbaa !7
  %72 = call nonnull align 8 dereferenceable(8) %"class.std::basic_ostream"* @_ZSt16__ostream_insertIcSt11char_traitsIcEERSt13basic_ostreamIT_T0_ES6_PKS3_l(%"class.std::basic_ostream"* nonnull align 8 dereferenceable(8) @_ZSt4cout, i8* nonnull %1, i64 1)
  call void @llvm.lifetime.end.p0i8(i64 1, i8* nonnull %1)
  %73 = add nuw nsw i64 %68, 1
  %74 = icmp eq i64 %73, %6
  br i1 %74, label %39, label %67, !llvm.loop !19

75:                                               ; preds = %63, %35
  %76 = add nuw i64 %16, 1
  %77 = call i64 @strlen(i8* noundef nonnull dereferenceable(1) getelementptr inbounds ([600 x i8], [600 x i8]* @a, i64 0, i64 0)) #8
  %78 = sub i64 %77, %5
  %79 = icmp ugt i64 %78, %76
  br i1 %79, label %15, label %18, !llvm.loop !20
}

; Function Attrs: argmemonly mustprogress nofree nounwind readonly willreturn
declare i64 @strlen(i8* nocapture) local_unnamed_addr #4

declare void @_ZSt17__istream_extractRSiPcl(%"class.std::basic_istream"* nonnull align 8 dereferenceable(16), i8*, i64) local_unnamed_addr #0

declare nonnull align 8 dereferenceable(8) %"class.std::basic_ostream"* @_ZSt16__ostream_insertIcSt11char_traitsIcEERSt13basic_ostreamIT_T0_ES6_PKS3_l(%"class.std::basic_ostream"* nonnull align 8 dereferenceable(8), i8*, i64) local_unnamed_addr #0

declare nonnull align 8 dereferenceable(8) %"class.std::basic_ostream"* @_ZNSo3putEc(%"class.std::basic_ostream"* nonnull align 8 dereferenceable(8), i8 signext) local_unnamed_addr #0

declare nonnull align 8 dereferenceable(8) %"class.std::basic_ostream"* @_ZNSo5flushEv(%"class.std::basic_ostream"* nonnull align 8 dereferenceable(8)) local_unnamed_addr #0

; Function Attrs: noreturn
declare void @_ZSt16__throw_bad_castv() local_unnamed_addr #5

declare void @_ZNKSt5ctypeIcE13_M_widen_initEv(%"class.std::ctype"* nonnull align 8 dereferenceable(570)) local_unnamed_addr #0

; Function Attrs: sspstrong uwtable
define internal void @_GLOBAL__sub_I_1406.cpp() #6 section ".text.startup" {
  tail call void @_ZNSt8ios_base4InitC1Ev(%"class.std::ios_base::Init"* nonnull align 1 dereferenceable(1) @_ZStL8__ioinit)
  %1 = tail call i32 @__cxa_atexit(void (i8*)* bitcast (void (%"class.std::ios_base::Init"*)* @_ZNSt8ios_base4InitD1Ev to void (i8*)*), i8* getelementptr inbounds (%"class.std::ios_base::Init", %"class.std::ios_base::Init"* @_ZStL8__ioinit, i64 0, i32 0), i8* nonnull @__dso_handle) #10
  ret void
}

; Function Attrs: argmemonly nofree nosync nounwind willreturn
declare void @llvm.lifetime.start.p0i8(i64 immarg, i8* nocapture) #7

; Function Attrs: argmemonly nofree nosync nounwind willreturn
declare void @llvm.lifetime.end.p0i8(i64 immarg, i8* nocapture) #7


!llvm.module.flags = !{!0, !1, !2, !3}
!llvm.ident = !{!4}

!0 = !{i32 1, !"wchar_size", i32 4}
!1 = !{i32 7, !"PIC Level", i32 2}
!2 = !{i32 7, !"PIE Level", i32 2}
!3 = !{i32 7, !"uwtable", i32 1}
!4 = !{!"clang version 13.0.0"}
!5 = distinct !{!5, !6}
!6 = !{!"llvm.loop.mustprogress"}
!7 = !{!8, !8, i64 0}
!8 = !{!"omnipotent char", !9, i64 0}
!9 = !{!"Simple C++ TBAA"}
!10 = distinct !{!10, !6}
!11 = !{!12, !12, i64 0}
!12 = !{!"vtable pointer", !9, i64 0}
!13 = !{!14, !15, i64 240}
!14 = !{!"_ZTSSt9basic_iosIcSt11char_traitsIcEE", !15, i64 216, !8, i64 224, !16, i64 225, !15, i64 232, !15, i64 240, !15, i64 248, !15, i64 256}
!15 = !{!"any pointer", !8, i64 0}
!16 = !{!"bool", !8, i64 0}
!17 = !{!18, !8, i64 56}
!18 = !{!"_ZTSSt5ctypeIcE", !15, i64 16, !16, i64 24, !15, i64 32, !15, i64 40, !15, i64 48, !8, i64 56, !8, i64 57, !8, i64 313, !8, i64 569}
!19 = distinct !{!19, !6}
!20 = distinct !{!20, !6}
